; Function Attrs: mustprogress uwtable
define internal void @_ZNK5faiss12_GLOBAL__N_114IVFSQScannerIPINS0_20DistanceComputerByteINS0_12SimilarityIPILi1EEELi1EEELi0EE16scan_codes_rangeEmPKhPKlfRNS_16RangeQueryResultE(ptr nocapture noundef nonnull readonly align 8 dereferenceable(112) %0, i64 noundef %1, ptr nocapture noundef readonly %2, ptr nocapture noundef readonly %3, float noundef %4, ptr noundef nonnull align 8 dereferenceable(24) %5) unnamed_addr #0 align 2 {
  %.not18 = icmp eq i64 %1, 0
  br i1 %.not18, label %._crit_edge, label %.lr.ph

.lr.ph:                                           ; preds = %6
  %7 = getelementptr inbounds i8, ptr %0, i64 108
  %8 = getelementptr inbounds i8, ptr %0, i64 80
  %9 = getelementptr inbounds i8, ptr %0, i64 72
  %10 = getelementptr inbounds i8, ptr %0, i64 17
  %11 = getelementptr inbounds i8, ptr %0, i64 8
  %12 = getelementptr inbounds i8, ptr %0, i64 32
  br label %13

13:                                               ; preds = %.lr.ph, %40
  %.017 = phi ptr [ %2, %.lr.ph ], [ %43, %40 ]
  %.01315 = phi i64 [ 0, %.lr.ph ], [ %41, %40 ]
  %14 = load float, ptr %7, align 4
  %15 = load ptr, ptr %8, align 8
  %.val.i = load i32, ptr %9, align 8
  %16 = icmp sgt i32 %.val.i, 0
  br i1 %16, label %.lr.ph.preheader.i.i, label %_ZNK5faiss12_GLOBAL__N_120DistanceComputerByteINS0_12SimilarityIPILi1EEELi1EE13query_to_codeEPKh.exit

.lr.ph.preheader.i.i:                             ; preds = %13
  %wide.trip.count.i.i = zext nneg i32 %.val.i to i64
  br label %.lr.ph.i.i

.lr.ph.i.i:                                       ; preds = %.lr.ph.i.i, %.lr.ph.preheader.i.i
  %indvars.iv.i.i = phi i64 [ 0, %.lr.ph.preheader.i.i ], [ %indvars.iv.next.i.i, %.lr.ph.i.i ]
  %.081.i.i = phi i32 [ 0, %.lr.ph.preheader.i.i ], [ %24, %.lr.ph.i.i ]
  %17 = getelementptr inbounds i8, ptr %15, i64 %indvars.iv.i.i
  %18 = load i8, ptr %17, align 1
  %19 = zext i8 %18 to i32
  %20 = getelementptr inbounds i8, ptr %.017, i64 %indvars.iv.i.i
  %21 = load i8, ptr %20, align 1
  %22 = zext i8 %21 to i32
  %23 = mul nuw nsw i32 %22, %19
  %24 = add nuw nsw i32 %23, %.081.i.i
  %indvars.iv.next.i.i = add nuw nsw i64 %indvars.iv.i.i, 1
  %exitcond.not.i.i = icmp eq i64 %indvars.iv.next.i.i, %wide.trip.count.i.i
  br i1 %exitcond.not.i.i, label %_ZNK5faiss12_GLOBAL__N_120DistanceComputerByteINS0_12SimilarityIPILi1EEELi1EE21compute_code_distanceEPKhS6_.exit.loopexit.i, label %.lr.ph.i.i, !llvm.loop !73

_ZNK5faiss12_GLOBAL__N_120DistanceComputerByteINS0_12SimilarityIPILi1EEELi1EE21compute_code_distanceEPKhS6_.exit.loopexit.i: ; preds = %.lr.ph.i.i
  %25 = sitofp i32 %24 to float
  br label %_ZNK5faiss12_GLOBAL__N_120DistanceComputerByteINS0_12SimilarityIPILi1EEELi1EE13query_to_codeEPKh.exit

_ZNK5faiss12_GLOBAL__N_120DistanceComputerByteINS0_12SimilarityIPILi1EEELi1EE13query_to_codeEPKh.exit: ; preds = %13, %_ZNK5faiss12_GLOBAL__N_120DistanceComputerByteINS0_12SimilarityIPILi1EEELi1EE21compute_code_distanceEPKhS6_.exit.loopexit.i
  %.08.lcssa.i.i = phi float [ 0.000000e+00, %13 ], [ %25, %_ZNK5faiss12_GLOBAL__N_120DistanceComputerByteINS0_12SimilarityIPILi1EEELi1EE21compute_code_distanceEPKhS6_.exit.loopexit.i ]
  %26 = fadd float %14, %.08.lcssa.i.i
  %27 = fcmp ogt float %26, %4
  br i1 %27, label %28, label %40

28:                                               ; preds = %_ZNK5faiss12_GLOBAL__N_120DistanceComputerByteINS0_12SimilarityIPILi1EEELi1EE13query_to_codeEPKh.exit
  %29 = load i8, ptr %10, align 1
  %30 = and i8 %29, 1
  %.not = icmp eq i8 %30, 0
  br i1 %.not, label %35, label %31

31:                                               ; preds = %28
  %32 = load i64, ptr %11, align 8
  %33 = shl i64 %32, 32
  %34 = or i64 %33, %.01315
  br label %38

35:                                               ; preds = %28
  %36 = getelementptr inbounds i64, ptr %3, i64 %.01315
  %37 = load i64, ptr %36, align 8
  br label %38

38:                                               ; preds = %35, %31
  %39 = phi i64 [ %34, %31 ], [ %37, %35 ]
  tail call void @_ZN5faiss16RangeQueryResult3addEfl(ptr noundef nonnull align 8 dereferenceable(24) %5, float noundef %26, i64 noundef %39)
  br label %40

40:                                               ; preds = %_ZNK5faiss12_GLOBAL__N_120DistanceComputerByteINS0_12SimilarityIPILi1EEELi1EE13query_to_codeEPKh.exit, %38
  %41 = add nuw i64 %.01315, 1
  %42 = load i64, ptr %12, align 8
  %43 = getelementptr inbounds i8, ptr %.017, i64 %42
  %exitcond.not = icmp eq i64 %41, %1
  br i1 %exitcond.not, label %._crit_edge, label %13, !llvm.loop !167

._crit_edge:                                      ; preds = %40, %6
  ret void
}